; Function Attrs: mustprogress nounwind uwtable
define internal noundef ptr @_ZN4node6crypto12_GLOBAL__N_118GetSessionCallbackEP6ssl_stPKhiPi(ptr noundef %s, ptr nocapture readnone %key, i32 %len, ptr nocapture noundef writeonly %copy) #3 {
entry:
  %call = tail call ptr @SSL_get_ex_data(ptr noundef %s, i32 noundef 0) #23
  store i32 0, ptr %copy, align 4
  %next_sess_.i = getelementptr inbounds i8, ptr %call, i64 160
  %0 = load ptr, ptr %next_sess_.i, align 8
  store ptr null, ptr %next_sess_.i, align 8
  ret ptr %0
}